; Function Attrs: mustprogress uwtable
define dso_local noundef ptr @_ZNK4Json5Value9asCStringEv(ptr nocapture noundef nonnull readonly align 8 dereferenceable(40) %0) local_unnamed_addr #10 align 2 personality ptr @__gxx_personality_v0 {
  %2 = alloca %"class.std::__cxx11::basic_ostringstream", align 8
  %3 = alloca %"class.std::__cxx11::basic_string", align 8
  %4 = getelementptr inbounds i8, ptr %0, i64 8
  %5 = load i16, ptr %4, align 8
  %6 = and i16 %5, 255
  %7 = icmp eq i16 %6, 4
  br i1 %7, label %_ZN4JsonL20decodePrefixedStringEbPKcPjPS1_.exit, label %8

8:                                                ; preds = %1
  call void @_ZNSt7__cxx1119basic_ostringstreamIcSt11char_traitsIcESaIcEEC1Ev(ptr noundef nonnull align 8 dereferenceable(112) %2)
  %9 = invoke noundef nonnull align 8 dereferenceable(8) ptr @_ZStlsISt11char_traitsIcEERSt13basic_ostreamIcT_ES5_PKc(ptr noundef nonnull align 8 dereferenceable(8) %2, ptr noundef nonnull @.str.6)
          to label %10 unwind label %13

10:                                               ; preds = %8
  invoke void @_ZNKSt7__cxx1119basic_ostringstreamIcSt11char_traitsIcESaIcEE3strEv(ptr dead_on_unwind nonnull writable sret(%"class.std::__cxx11::basic_string") align 8 %3, ptr noundef nonnull align 8 dereferenceable(112) %2)
          to label %11 unwind label %13

11:                                               ; preds = %10
  invoke void @_ZN4Json15throwLogicErrorERKNSt7__cxx1112basic_stringIcSt11char_traitsIcESaIcEEE(ptr noundef nonnull align 8 dereferenceable(32) %3) #37
          to label %12 unwind label %15

12:                                               ; preds = %11
  unreachable

13:                                               ; preds = %10, %8
  %14 = landingpad { ptr, i32 }
          cleanup
  br label %17

15:                                               ; preds = %11
  %16 = landingpad { ptr, i32 }
          cleanup
  call void @_ZNSt7__cxx1112basic_stringIcSt11char_traitsIcESaIcEED1Ev(ptr noundef nonnull align 8 dereferenceable(32) %3) #35
  br label %17

17:                                               ; preds = %15, %13
  %.pn = phi { ptr, i32 } [ %16, %15 ], [ %14, %13 ]
  call void @_ZNSt7__cxx1119basic_ostringstreamIcSt11char_traitsIcESaIcEED1Ev(ptr noundef nonnull align 8 dereferenceable(112) %2) #35
  resume { ptr, i32 } %.pn

_ZN4JsonL20decodePrefixedStringEbPKcPjPS1_.exit:  ; preds = %1
  %18 = load ptr, ptr %0, align 8
  %19 = icmp eq ptr %18, null
  %20 = lshr i16 %5, 6
  %21 = and i16 %20, 4
  %spec.select.idx = zext nneg i16 %21 to i64
  %spec.select = getelementptr inbounds i8, ptr %18, i64 %spec.select.idx
  %.04 = select i1 %19, ptr null, ptr %spec.select
  ret ptr %.04
}